; Function Attrs: mustprogress nounwind uwtable
define dso_local void @_ZN4llvm23DebugLocDwarfExpression10emitSignedEl(ptr noundef nonnull readonly align 8 captures(none) dereferenceable(112) %0, i64 noundef %1) unnamed_addr #0 align 2 {
  %3 = alloca i64, align 8
  %4 = alloca %"class.llvm::Twine", align 8
  store i64 %1, ptr %3, align 8
  %5 = getelementptr inbounds nuw i8, ptr %0, i64 104
  %6 = load i8, ptr %5, align 8
  %7 = trunc i8 %6 to i1
  %8 = getelementptr inbounds nuw i8, ptr %0, i64 88
  %9 = load ptr, ptr %8, align 8
  %10 = getelementptr inbounds nuw i8, ptr %9, i64 80
  %11 = getelementptr inbounds nuw i8, ptr %0, i64 96
  %12 = load ptr, ptr %11, align 8
  %13 = select i1 %7, ptr %10, ptr %12
  %14 = getelementptr inbounds nuw i8, ptr %4, i64 32
  store i8 12, ptr %14, align 8
  %15 = getelementptr inbounds nuw i8, ptr %4, i64 33
  store i8 1, ptr %15, align 1
  store ptr %3, ptr %4, align 8
  %16 = load ptr, ptr %13, align 8
  %17 = getelementptr inbounds nuw i8, ptr %16, i64 8
  %18 = load ptr, ptr %17, align 8
  call void %18(ptr noundef nonnull align 8 dereferenceable(8) %13, i64 noundef %1, ptr noundef nonnull align 8 dereferenceable(34) %4) #27
  ret void
}